target datalayout = "e-m:e-p270:32:32-p271:32:32-p272:64:64-i64:64-i128:128-f80:128-n8:16:32:64-S128"
target triple = "x86_64-unknown-linux-gnu"

%struct.QTailQLink = type { ptr, ptr }
%struct.BlockDriverState = type { i32, i8, i8, i8, i8, i8, ptr, ptr, ptr, %struct.anon.0, i8, [4096 x i8], [4096 x i8], [4096 x i8], [16 x i8], ptr, [4096 x i8], %struct.BlockLimits, i32, i32, i32, i32, [32 x i8], %union.anon.1, %union.anon.2, %union.anon.3, i32, [16 x %struct.anon.4], ptr, %struct.anon.5, ptr, ptr, %struct.anon.6, ptr, ptr, i32, ptr, i64, i64, %struct.QemuMutex, %struct.anon.7, %struct.Stat64, i32, i32, i32, i32, i32, i32, %struct.QemuMutex, %struct.anon.8, %struct.CoQueue, i8, i32, i8, %struct.CoMutex, ptr, ptr }
%struct.anon.0 = type { ptr }
%struct.BlockLimits = type { i32, i64, i32, i64, i32, i32, i32, i64, i32, i64, i64, i32, i8, i32, i32, i32, i32, i32, i32, i32 }
%union.anon.1 = type { %struct.QTailQLink }
%union.anon.2 = type { %struct.QTailQLink }
%union.anon.3 = type { %struct.QTailQLink }
%struct.anon.4 = type { ptr }
%struct.anon.5 = type { ptr }
%struct.anon.6 = type { ptr }
%struct.anon.7 = type { ptr }
%struct.Stat64 = type { i64 }
%struct.QemuMutex = type { %union.pthread_mutex_t, i8 }
%union.pthread_mutex_t = type { %struct.__pthread_mutex_s }
%struct.__pthread_mutex_s = type { i32, i32, i32, i32, i32, i16, i16, %struct.__pthread_internal_list }
%struct.__pthread_internal_list = type { ptr, ptr }
%struct.anon.8 = type { ptr }
%struct.CoQueue = type { %struct.anon.9 }
%struct.anon.9 = type { ptr, ptr }
%struct.CoMutex = type { i32, ptr, %struct.anon.10, %struct.anon.10, i32, i32, ptr }
%struct.anon.10 = type { ptr }
%struct.BdrvChild = type { ptr, ptr, ptr, i32, ptr, i64, i64, i8, i8, %struct.anon.11, %struct.anon.12 }
%struct.anon.11 = type { ptr, ptr }
%struct.anon.12 = type { ptr, ptr }
%struct.BDRVParallelsState = type { %struct.CoMutex, ptr, i32, i8, ptr, i32, ptr, i64, ptr, i32, i64, i64, i64, i32, i32, i32, i32, ptr }

; Function Attrs: nounwind sspstrong uwtable
define internal i32 @host_cluster_index(ptr noundef %s, i64 noundef %off) #0 {
entry:
  %s.addr = alloca ptr, align 8
  %off.addr = alloca i64, align 8
  store ptr %s, ptr %s.addr, align 8
  store i64 %off, ptr %off.addr, align 8
  %0 = load ptr, ptr %s.addr, align 8
  %data_start = getelementptr inbounds %struct.BDRVParallelsState, ptr %0, i32 0, i32 10
  %1 = load i64, ptr %data_start, align 8
  %shl = shl i64 %1, 9
  %2 = load i64, ptr %off.addr, align 8
  %sub = sub i64 %2, %shl
  store i64 %sub, ptr %off.addr, align 8
  %3 = load i64, ptr %off.addr, align 8
  %4 = load ptr, ptr %s.addr, align 8
  %cluster_size = getelementptr inbounds %struct.BDRVParallelsState, ptr %4, i32 0, i32 15
  %5 = load i32, ptr %cluster_size, align 8
  %conv = zext i32 %5 to i64
  %div = sdiv i64 %3, %conv
  %conv1 = trunc i64 %div to i32
  ret i32 %conv1
}

; Function Attrs: nounwind sspstrong uwtable
define internal i32 @le32_to_cpu(i32 noundef %v) #0 {
entry:
  %v.addr = alloca i32, align 4
  store i32 %v, ptr %v.addr, align 4
  %0 = load i32, ptr %v.addr, align 4
  ret i32 %0
}

; Function Attrs: nounwind sspstrong uwtable
define internal i32 @mark_used(ptr noundef %bs, ptr noundef %bitmap, i32 noundef %bitmap_size, i64 noundef %off, i32 noundef %count) #0 {
entry:
  %retval = alloca i32, align 4
  %bs.addr = alloca ptr, align 8
  %bitmap.addr = alloca ptr, align 8
  %bitmap_size.addr = alloca i32, align 4
  %off.addr = alloca i64, align 8
  %count.addr = alloca i32, align 4
  %s = alloca ptr, align 8
  %cluster_index = alloca i32, align 4
  %next_used = alloca i64, align 8
  store ptr %bs, ptr %bs.addr, align 8
  store ptr %bitmap, ptr %bitmap.addr, align 8
  store i32 %bitmap_size, ptr %bitmap_size.addr, align 4
  store i64 %off, ptr %off.addr, align 8
  store i32 %count, ptr %count.addr, align 4
  %0 = load ptr, ptr %bs.addr, align 8
  %opaque = getelementptr inbounds %struct.BlockDriverState, ptr %0, i32 0, i32 7
  %1 = load ptr, ptr %opaque, align 8
  store ptr %1, ptr %s, align 8
  %2 = load ptr, ptr %s, align 8
  %3 = load i64, ptr %off.addr, align 8
  %call = call i32 @host_cluster_index(ptr noundef %2, i64 noundef %3)
  store i32 %call, ptr %cluster_index, align 4
  %4 = load i32, ptr %cluster_index, align 4
  %5 = load i32, ptr %count.addr, align 4
  %add = add i32 %4, %5
  %6 = load i32, ptr %bitmap_size.addr, align 4
  %cmp = icmp ugt i32 %add, %6
  br i1 %cmp, label %if.then, label %if.end

if.then:                                          ; preds = %entry
  store i32 -7, ptr %retval, align 4
  br label %return

if.end:                                           ; preds = %entry
  %7 = load ptr, ptr %bitmap.addr, align 8
  %8 = load i32, ptr %bitmap_size.addr, align 4
  %conv = zext i32 %8 to i64
  %9 = load i32, ptr %cluster_index, align 4
  %conv1 = zext i32 %9 to i64
  %call2 = call i64 @find_next_bit(ptr noundef %7, i64 noundef %conv, i64 noundef %conv1)
  store i64 %call2, ptr %next_used, align 8
  %10 = load i64, ptr %next_used, align 8
  %11 = load i32, ptr %cluster_index, align 4
  %12 = load i32, ptr %count.addr, align 4
  %add3 = add i32 %11, %12
  %conv4 = zext i32 %add3 to i64
  %cmp5 = icmp ult i64 %10, %conv4
  br i1 %cmp5, label %if.then7, label %if.end8

if.then7:                                         ; preds = %if.end
  store i32 -16, ptr %retval, align 4
  br label %return

if.end8:                                          ; preds = %if.end
  %13 = load ptr, ptr %bitmap.addr, align 8
  %14 = load i32, ptr %cluster_index, align 4
  %conv9 = zext i32 %14 to i64
  %15 = load i32, ptr %count.addr, align 4
  %conv10 = zext i32 %15 to i64
  call void @bitmap_set(ptr noundef %13, i64 noundef %conv9, i64 noundef %conv10)
  store i32 0, ptr %retval, align 4
  br label %return

return:                                           ; preds = %if.end8, %if.then7, %if.then
  %16 = load i32, ptr %retval, align 4
  ret i32 %16
}

; Function Attrs: nounwind sspstrong uwtable
define internal i64 @bat2sect(ptr noundef %s, i32 noundef %idx) #0 {
entry:
  %s.addr = alloca ptr, align 8
  %idx.addr = alloca i32, align 4
  store ptr %s, ptr %s.addr, align 8
  store i32 %idx, ptr %idx.addr, align 4
  %0 = load ptr, ptr %s.addr, align 8
  %bat_bitmap = getelementptr inbounds %struct.BDRVParallelsState, ptr %0, i32 0, i32 8
  %1 = load ptr, ptr %bat_bitmap, align 8
  %2 = load i32, ptr %idx.addr, align 4
  %idxprom = zext i32 %2 to i64
  %arrayidx = getelementptr i32, ptr %1, i64 %idxprom
  %3 = load i32, ptr %arrayidx, align 4
  %call = call i32 @le32_to_cpu(i32 noundef %3)
  %conv = zext i32 %call to i64
  %4 = load ptr, ptr %s.addr, align 8
  %off_multiplier = getelementptr inbounds %struct.BDRVParallelsState, ptr %4, i32 0, i32 16
  %5 = load i32, ptr %off_multiplier, align 4
  %conv1 = zext i32 %5 to i64
  %mul = mul i64 %conv, %conv1
  ret i64 %mul
}

; Function Attrs: nounwind sspstrong uwtable
define internal ptr @bitmap_try_new(i64 noundef %nbits) #0 {
entry:
  %nbits.addr = alloca i64, align 8
  %len = alloca i64, align 8
  store i64 %nbits, ptr %nbits.addr, align 8
  %0 = load i64, ptr %nbits.addr, align 8
  %add = add i64 %0, 64
  %sub = sub i64 %add, 1
  %div = udiv i64 %sub, 64
  %mul = mul i64 %div, 8
  store i64 %mul, ptr %len, align 8
  %1 = load i64, ptr %len, align 8
  %call = call noalias ptr @g_try_malloc0(i64 noundef %1) #12
  ret ptr %call
}

; Function Attrs: nounwind sspstrong uwtable
define internal i32 @parallels_fill_used_bitmap(ptr noundef %bs) #0 {
entry:
  %retval = alloca i32, align 4
  %bs.addr = alloca ptr, align 8
  %s = alloca ptr, align 8
  %payload_bytes = alloca i64, align 8
  %i = alloca i32, align 4
  %err = alloca i32, align 4
  %err2 = alloca i32, align 4
  %host_off = alloca i64, align 8
  store ptr %bs, ptr %bs.addr, align 8
  %0 = load ptr, ptr %bs.addr, align 8
  %opaque = getelementptr inbounds %struct.BlockDriverState, ptr %0, i32 0, i32 7
  %1 = load ptr, ptr %opaque, align 8
  store ptr %1, ptr %s, align 8
  store i32 0, ptr %err, align 4
  %2 = load ptr, ptr %bs.addr, align 8
  %file = getelementptr inbounds %struct.BlockDriverState, ptr %2, i32 0, i32 31
  %3 = load ptr, ptr %file, align 8
  %bs1 = getelementptr inbounds %struct.BdrvChild, ptr %3, i32 0, i32 0
  %4 = load ptr, ptr %bs1, align 8
  %call = call i64 @bdrv_getlength(ptr noundef %4)
  store i64 %call, ptr %payload_bytes, align 8
  %5 = load i64, ptr %payload_bytes, align 8
  %cmp = icmp slt i64 %5, 0
  br i1 %cmp, label %if.then, label %if.end

if.then:                                          ; preds = %entry
  %6 = load i64, ptr %payload_bytes, align 8
  %conv = trunc i64 %6 to i32
  store i32 %conv, ptr %retval, align 4
  br label %return

if.end:                                           ; preds = %entry
  %7 = load ptr, ptr %s, align 8
  %data_start = getelementptr inbounds %struct.BDRVParallelsState, ptr %7, i32 0, i32 10
  %8 = load i64, ptr %data_start, align 8
  %mul = mul i64 %8, 512
  %9 = load i64, ptr %payload_bytes, align 8
  %sub = sub i64 %9, %mul
  store i64 %sub, ptr %payload_bytes, align 8
  %10 = load i64, ptr %payload_bytes, align 8
  %cmp2 = icmp slt i64 %10, 0
  br i1 %cmp2, label %if.then4, label %if.end5

if.then4:                                         ; preds = %if.end
  store i32 -22, ptr %retval, align 4
  br label %return

if.end5:                                          ; preds = %if.end
  %11 = load i64, ptr %payload_bytes, align 8
  %12 = load ptr, ptr %s, align 8
  %cluster_size = getelementptr inbounds %struct.BDRVParallelsState, ptr %12, i32 0, i32 15
  %13 = load i32, ptr %cluster_size, align 8
  %conv6 = zext i32 %13 to i64
  %add = add i64 %11, %conv6
  %sub7 = sub i64 %add, 1
  %14 = load ptr, ptr %s, align 8
  %cluster_size8 = getelementptr inbounds %struct.BDRVParallelsState, ptr %14, i32 0, i32 15
  %15 = load i32, ptr %cluster_size8, align 8
  %conv9 = zext i32 %15 to i64
  %div = sdiv i64 %sub7, %conv9
  %16 = load ptr, ptr %s, align 8
  %used_bmap_size = getelementptr inbounds %struct.BDRVParallelsState, ptr %16, i32 0, i32 7
  store i64 %div, ptr %used_bmap_size, align 8
  %17 = load ptr, ptr %s, align 8
  %used_bmap_size10 = getelementptr inbounds %struct.BDRVParallelsState, ptr %17, i32 0, i32 7
  %18 = load i64, ptr %used_bmap_size10, align 8
  %cmp11 = icmp eq i64 %18, 0
  br i1 %cmp11, label %if.then13, label %if.end14

if.then13:                                        ; preds = %if.end5
  store i32 0, ptr %retval, align 4
  br label %return

if.end14:                                         ; preds = %if.end5
  %19 = load ptr, ptr %s, align 8
  %used_bmap_size15 = getelementptr inbounds %struct.BDRVParallelsState, ptr %19, i32 0, i32 7
  %20 = load i64, ptr %used_bmap_size15, align 8
  %call16 = call ptr @bitmap_try_new(i64 noundef %20)
  %21 = load ptr, ptr %s, align 8
  %used_bmap = getelementptr inbounds %struct.BDRVParallelsState, ptr %21, i32 0, i32 6
  store ptr %call16, ptr %used_bmap, align 8
  %22 = load ptr, ptr %s, align 8
  %used_bmap17 = getelementptr inbounds %struct.BDRVParallelsState, ptr %22, i32 0, i32 6
  %23 = load ptr, ptr %used_bmap17, align 8
  %cmp18 = icmp eq ptr %23, null
  br i1 %cmp18, label %if.then20, label %if.end21

if.then20:                                        ; preds = %if.end14
  store i32 -12, ptr %retval, align 4
  br label %return

if.end21:                                         ; preds = %if.end14
  store i32 0, ptr %i, align 4
  br label %for.cond

for.cond:                                         ; preds = %for.inc, %if.end21
  %24 = load i32, ptr %i, align 4
  %25 = load ptr, ptr %s, align 8
  %bat_size = getelementptr inbounds %struct.BDRVParallelsState, ptr %25, i32 0, i32 9
  %26 = load i32, ptr %bat_size, align 8
  %cmp22 = icmp ult i32 %24, %26
  br i1 %cmp22, label %for.body, label %for.end

for.body:                                         ; preds = %for.cond
  %27 = load ptr, ptr %s, align 8
  %28 = load i32, ptr %i, align 4
  %call24 = call i64 @bat2sect(ptr noundef %27, i32 noundef %28)
  %shl = shl i64 %call24, 9
  store i64 %shl, ptr %host_off, align 8
  %29 = load i64, ptr %host_off, align 8
  %cmp25 = icmp eq i64 %29, 0
  br i1 %cmp25, label %if.then27, label %if.end28

if.then27:                                        ; preds = %for.body
  br label %for.inc

if.end28:                                         ; preds = %for.body
  %30 = load ptr, ptr %bs.addr, align 8
  %31 = load ptr, ptr %s, align 8
  %used_bmap29 = getelementptr inbounds %struct.BDRVParallelsState, ptr %31, i32 0, i32 6
  %32 = load ptr, ptr %used_bmap29, align 8
  %33 = load ptr, ptr %s, align 8
  %used_bmap_size30 = getelementptr inbounds %struct.BDRVParallelsState, ptr %33, i32 0, i32 7
  %34 = load i64, ptr %used_bmap_size30, align 8
  %conv31 = trunc i64 %34 to i32
  %35 = load i64, ptr %host_off, align 8
  %call32 = call i32 @mark_used(ptr noundef %30, ptr noundef %32, i32 noundef %conv31, i64 noundef %35, i32 noundef 1)
  store i32 %call32, ptr %err2, align 4
  %36 = load i32, ptr %err2, align 4
  %cmp33 = icmp slt i32 %36, 0
  br i1 %cmp33, label %land.lhs.true, label %if.end38

land.lhs.true:                                    ; preds = %if.end28
  %37 = load i32, ptr %err, align 4
  %cmp35 = icmp eq i32 %37, 0
  br i1 %cmp35, label %if.then37, label %if.end38

if.then37:                                        ; preds = %land.lhs.true
  %38 = load i32, ptr %err2, align 4
  store i32 %38, ptr %err, align 4
  br label %if.end38

if.end38:                                         ; preds = %if.then37, %land.lhs.true, %if.end28
  br label %for.inc

for.inc:                                          ; preds = %if.end38, %if.then27
  %39 = load i32, ptr %i, align 4
  %inc = add i32 %39, 1
  store i32 %inc, ptr %i, align 4
  br label %for.cond, !llvm.loop !12

for.end:                                          ; preds = %for.cond
  %40 = load i32, ptr %err, align 4
  store i32 %40, ptr %retval, align 4
  br label %return

return:                                           ; preds = %for.end, %if.then20, %if.then13, %if.then4, %if.then
  %41 = load i32, ptr %retval, align 4
  ret i32 %41
}