; Function Attrs: nounwind sspstrong uwtable
define internal fastcc i32 @parallels_fill_used_bitmap(ptr noundef readonly captures(none) %bs) unnamed_addr #0 {
entry:
  %opaque = getelementptr inbounds nuw i8, ptr %bs, i64 24
  %0 = load ptr, ptr %opaque, align 8
  %file = getelementptr inbounds nuw i8, ptr %bs, i64 16840
  %1 = load ptr, ptr %file, align 8
  %2 = load ptr, ptr %1, align 8
  %call = tail call i64 @bdrv_getlength(ptr noundef %2) #16
  %cmp = icmp slt i64 %call, 0
  br i1 %cmp, label %if.then, label %if.end

if.then:                                          ; preds = %entry
  %conv = trunc i64 %call to i32
  br label %return

if.end:                                           ; preds = %entry
  %data_start = getelementptr inbounds nuw i8, ptr %0, i64 112
  %3 = load i64, ptr %data_start, align 8
  %mul = shl i64 %3, 9
  %sub = sub i64 %call, %mul
  %cmp2 = icmp slt i64 %sub, 0
  br i1 %cmp2, label %return, label %if.end5

if.end5:                                          ; preds = %if.end
  %cluster_size = getelementptr inbounds nuw i8, ptr %0, i64 144
  %4 = load i32, ptr %cluster_size, align 8
  %conv6 = zext i32 %4 to i64
  %add = add nsw i64 %sub, -1
  %sub7 = add i64 %add, %conv6
  %div = sdiv i64 %sub7, %conv6
  %used_bmap_size = getelementptr inbounds nuw i8, ptr %0, i64 88
  store i64 %div, ptr %used_bmap_size, align 8
  %cmp11 = icmp eq i64 %div, 0
  br i1 %cmp11, label %return, label %if.end14

if.end14:                                         ; preds = %if.end5
  %sub.i = add i64 %div, 63
  %5 = lshr i64 %sub.i, 3
  %mul.i = and i64 %5, 2305843009213693944
  %call.i = tail call noalias ptr @g_try_malloc0(i64 noundef %mul.i) #20
  %used_bmap = getelementptr inbounds nuw i8, ptr %0, i64 80
  store ptr %call.i, ptr %used_bmap, align 8
  %cmp18 = icmp eq ptr %call.i, null
  br i1 %cmp18, label %return, label %for.cond.preheader

for.cond.preheader:                               ; preds = %if.end14
  %bat_size = getelementptr inbounds nuw i8, ptr %0, i64 104
  %6 = load i32, ptr %bat_size, align 8
  %cmp2228.not = icmp eq i32 %6, 0
  br i1 %cmp2228.not, label %return, label %for.body.lr.ph

for.body.lr.ph:                                   ; preds = %for.cond.preheader
  %7 = getelementptr i8, ptr %0, i64 96
  %8 = getelementptr i8, ptr %0, i64 148
  br label %for.body

for.body:                                         ; preds = %for.body.lr.ph, %for.inc
  %9 = phi i32 [ %6, %for.body.lr.ph ], [ %16, %for.inc ]
  %indvars.iv = phi i64 [ 0, %for.body.lr.ph ], [ %indvars.iv.next, %for.inc ]
  %err.030 = phi i32 [ 0, %for.body.lr.ph ], [ %err.1, %for.inc ]
  %.val = load ptr, ptr %7, align 8
  %.val23 = load i32, ptr %8, align 4
  %arrayidx.i = getelementptr i32, ptr %.val, i64 %indvars.iv
  %10 = load i32, ptr %arrayidx.i, align 4
  %conv.i = zext i32 %10 to i64
  %conv1.i = zext i32 %.val23 to i64
  %mul.i25 = mul nuw i64 %conv.i, %conv1.i
  %shl.mask = and i64 %mul.i25, 36028797018963967
  %cmp25 = icmp eq i64 %shl.mask, 0
  br i1 %cmp25, label %for.inc, label %if.end28

if.end28:                                         ; preds = %for.body
  %11 = load ptr, ptr %used_bmap, align 8
  %12 = load i64, ptr %used_bmap_size, align 8
  %conv31 = trunc i64 %12 to i32
  %bs.val = load ptr, ptr %opaque, align 8
  %13 = getelementptr i8, ptr %bs.val, i64 112
  %bs.val.val = load i64, ptr %13, align 8
  %14 = getelementptr i8, ptr %bs.val, i64 144
  %bs.val.val24 = load i32, ptr %14, align 8
  %15 = sub i64 %mul.i25, %bs.val.val
  %sub.i.i = shl i64 %15, 9
  %conv.i.i = zext i32 %bs.val.val24 to i64
  %div.i.i = sdiv i64 %sub.i.i, %conv.i.i
  %conv1.i.i = trunc i64 %div.i.i to i32
  %add.i = add i32 %conv1.i.i, 1
  %cmp.i = icmp ugt i32 %add.i, %conv31
  br i1 %cmp.i, label %mark_used.exit, label %if.end.i

if.end.i:                                         ; preds = %if.end28
  %conv.i26 = and i64 %12, 4294967295
  %conv1.i27 = and i64 %div.i.i, 4294967295
  %call2.i = tail call i64 @find_next_bit(ptr noundef %11, i64 noundef %conv.i26, i64 noundef %conv1.i27) #16
  %conv4.i = zext i32 %add.i to i64
  %cmp5.i = icmp ult i64 %call2.i, %conv4.i
  br i1 %cmp5.i, label %mark_used.exit, label %if.end8.i

if.end8.i:                                        ; preds = %if.end.i
  tail call void @bitmap_set(ptr noundef %11, i64 noundef %conv1.i27, i64 noundef 1) #16
  br label %mark_used.exit

mark_used.exit:                                   ; preds = %if.end28, %if.end.i, %if.end8.i
  %cmp33 = phi i1 [ false, %if.end8.i ], [ true, %if.end28 ], [ true, %if.end.i ]
  %retval.0.i = phi i32 [ 0, %if.end8.i ], [ -7, %if.end28 ], [ -16, %if.end.i ]
  %cmp35 = icmp eq i32 %err.030, 0
  %or.cond = select i1 %cmp33, i1 %cmp35, i1 false
  %spec.select = select i1 %or.cond, i32 %retval.0.i, i32 %err.030
  %.pre = load i32, ptr %bat_size, align 8
  br label %for.inc

for.inc:                                          ; preds = %mark_used.exit, %for.body
  %16 = phi i32 [ %9, %for.body ], [ %.pre, %mark_used.exit ]
  %err.1 = phi i32 [ %err.030, %for.body ], [ %spec.select, %mark_used.exit ]
  %indvars.iv.next = add nuw nsw i64 %indvars.iv, 1
  %17 = zext i32 %16 to i64
  %cmp22 = icmp samesign ult i64 %indvars.iv.next, %17
  br i1 %cmp22, label %for.body, label %return, !llvm.loop !14

return:                                           ; preds = %for.inc, %for.cond.preheader, %if.end14, %if.end5, %if.end, %if.then
  %retval.0 = phi i32 [ %conv, %if.then ], [ -22, %if.end ], [ 0, %if.end5 ], [ -12, %if.end14 ], [ 0, %for.cond.preheader ], [ %err.1, %for.inc ]
  ret i32 %retval.0
}